; Function Attrs: mustprogress uwtable
define internal void @"_ZNSt17_Function_handlerIFvRKSt6vectorIN8facebook5velox5cache8CachePinESaIS4_EEiimRKS0_IN5folly5RangeIPcEESaISC_EEEZNS3_7SsdFile4loadERKS0_INS3_6SsdPinESaISJ_EES8_E3$_1E9_M_invokeERKSt9_Any_dataS8_OiST_OmSG_"(ptr nocapture noundef nonnull readonly align 8 dereferenceable(16) %__functor, ptr nocapture nonnull readnone align 8 %__args, ptr nocapture nonnull readonly align 4 %__args1, ptr nocapture nonnull readonly align 4 %__args3, ptr nocapture noundef nonnull readonly align 8 dereferenceable(8) %__args5, ptr noundef nonnull align 8 dereferenceable(24) %__args7) #4 align 2 {
entry:
  %call.val = load ptr, ptr %__functor, align 8
  %__args5.val = load i64, ptr %__args5, align 8
  %0 = getelementptr i8, ptr %call.val, i64 256
  %call.val.val = load ptr, ptr %0, align 8
  %vtable.i.i.i.i = load ptr, ptr %call.val.val, align 8
  %vfn.i.i.i.i = getelementptr inbounds i8, ptr %vtable.i.i.i.i, i64 32
  %1 = load ptr, ptr %vfn.i.i.i.i, align 8
  %call2.i.i.i.i = tail call noundef i64 %1(ptr noundef nonnull align 8 dereferenceable(16) %call.val.val, i64 noundef %__args5.val, ptr noundef nonnull align 1 %__args7)
  ret void
}